target datalayout = "e-m:e-p270:32:32-p271:32:32-p272:64:64-i64:64-i128:128-f80:128-n8:16:32:64-S128"
target triple = "x86_64-pc-linux-gnu"

%struct.H5CX_dxpl_cache_t = type { i64, ptr, ptr, i32, [3 x double], i64, i32, %struct.H5Z_cb_t, ptr, %struct.H5T_vlen_alloc_info_t, %struct.H5T_conv_cb_t, i32, i32, i32, i8 }
%struct.H5Z_cb_t = type { ptr, ptr }
%struct.H5T_vlen_alloc_info_t = type { ptr, ptr, ptr, ptr }
%struct.H5T_conv_cb_t = type { ptr, ptr }
%struct.H5FL_reg_head_t = type { i8, i32, i32, ptr, i64, ptr }
%struct.H5CX_node_t = type { %struct.H5CX_t, ptr }
%struct.H5CX_t = type { i64, ptr, i64, ptr, i64, ptr, i64, ptr, i64, ptr, i64, ptr, i64, i32, i64, i8, ptr, i8, ptr, i8, i32, i8, [3 x double], i8, i64, i8, i32, i8, %struct.H5Z_cb_t, i8, ptr, i8, %struct.H5T_vlen_alloc_info_t, i8, %struct.H5T_conv_cb_t, i8, i32, i8, i8, i8, i32, i8, i8, i32, i8, i8, i32, i8, i32, i8, i64, i8, i8, i8, i8, i8, ptr, i8, ptr, i8, i32, i8, i32, i8, %struct.H5VL_connector_prop_t, i8, ptr, i8 }
%struct.H5VL_connector_prop_t = type { i64, ptr }

@H5CX_def_dxpl_cache = internal global %struct.H5CX_dxpl_cache_t zeroinitializer, align 8
@H5P_LST_DATASET_XFER_ID_g = external global i64, align 8
@.str = private unnamed_addr constant [98 x i8] c"generated/home/dtcxzyw/WorkSpace/Projects/compilers/llvm-opt-benchmark/bench/hdf5/hdf5/src/H5CX.c\00", align 1
@H5E_CONTEXT_g = external global i64, align 8
@H5E_BADTYPE_g = external global i64, align 8
@H5E_CANTGET_g = external global i64, align 8
@.str.29 = private unnamed_addr constant [22 x i8] c"no_selection_io_cause\00", align 1
@.str.31 = private unnamed_addr constant [25 x i8] c"actual_selection_io_mode\00", align 1
@H5CX_head_g = internal global ptr null, align 8
@H5_H5CX_node_t_reg_free_list = internal global %struct.H5FL_reg_head_t { i8 0, i32 0, i32 0, ptr @.str.81, i64 480, ptr null }, align 8
@.str.56 = private unnamed_addr constant [24 x i8] c"can't get property list\00", align 1
@__func__.H5CX_pop = private unnamed_addr constant [9 x i8] c"H5CX_pop\00", align 1
@.str.80 = private unnamed_addr constant [31 x i8] c"error getting API context node\00", align 1
@__func__.H5CX__pop_common = private unnamed_addr constant [17 x i8] c"H5CX__pop_common\00", align 1
@H5E_CANTSET_g = external global i64, align 8
@.str.83 = private unnamed_addr constant [33 x i8] c"error setting data xfer property\00", align 1

; Function Attrs: nounwind uwtable
define internal ptr @H5CX__pop_common(i1 noundef zeroext %0) #0 {
  %2 = alloca i8, align 1
  %3 = alloca ptr, align 8
  %4 = alloca ptr, align 8
  %5 = alloca i8, align 1
  %6 = zext i1 %0 to i8
  store i8 %6, ptr %2, align 1
  store ptr null, ptr %3, align 8
  store ptr null, ptr %4, align 8
  store i8 0, ptr %5, align 1
  store ptr @H5CX_head_g, ptr %3, align 8
  %7 = load i8, ptr %2, align 1
  %8 = trunc i8 %7 to i1
  br i1 %8, label %9, label %175

9:                                                ; preds = %1
  %10 = load ptr, ptr %3, align 8
  %11 = load ptr, ptr %10, align 8
  %12 = getelementptr inbounds %struct.H5CX_node_t, ptr %11, i32 0, i32 0
  %13 = getelementptr inbounds %struct.H5CX_t, ptr %12, i32 0, i32 0
  %14 = load i64, ptr %13, align 8
  %15 = load i64, ptr @H5P_LST_DATASET_XFER_ID_g, align 8
  %16 = icmp ne i64 %14, %15
  br i1 %16, label %17, label %34

17:                                               ; preds = %9
  %18 = load ptr, ptr %3, align 8
  %19 = load ptr, ptr %18, align 8
  %20 = getelementptr inbounds %struct.H5CX_node_t, ptr %19, i32 0, i32 0
  %21 = getelementptr inbounds %struct.H5CX_t, ptr %20, i32 0, i32 44
  %22 = load i8, ptr %21, align 8
  %23 = trunc i8 %22 to i1
  br i1 %23, label %34, label %24

24:                                               ; preds = %17
  %25 = load i32, ptr getelementptr inbounds (%struct.H5CX_dxpl_cache_t, ptr @H5CX_def_dxpl_cache, i32 0, i32 13), align 8
  %26 = load ptr, ptr %3, align 8
  %27 = load ptr, ptr %26, align 8
  %28 = getelementptr inbounds %struct.H5CX_node_t, ptr %27, i32 0, i32 0
  %29 = getelementptr inbounds %struct.H5CX_t, ptr %28, i32 0, i32 43
  store i32 %25, ptr %29, align 4
  %30 = load ptr, ptr %3, align 8
  %31 = load ptr, ptr %30, align 8
  %32 = getelementptr inbounds %struct.H5CX_node_t, ptr %31, i32 0, i32 0
  %33 = getelementptr inbounds %struct.H5CX_t, ptr %32, i32 0, i32 44
  store i8 1, ptr %33, align 8
  br label %34

34:                                               ; preds = %24, %17, %9
  %35 = load ptr, ptr %3, align 8
  %36 = load ptr, ptr %35, align 8
  %37 = getelementptr inbounds %struct.H5CX_node_t, ptr %36, i32 0, i32 0
  %38 = getelementptr inbounds %struct.H5CX_t, ptr %37, i32 0, i32 41
  %39 = load i8, ptr %38, align 8
  %40 = trunc i8 %39 to i1
  br i1 %40, label %41, label %104

41:                                               ; preds = %34
  %42 = load ptr, ptr %3, align 8
  %43 = load ptr, ptr %42, align 8
  %44 = getelementptr inbounds %struct.H5CX_node_t, ptr %43, i32 0, i32 0
  %45 = getelementptr inbounds %struct.H5CX_t, ptr %44, i32 0, i32 1
  %46 = load ptr, ptr %45, align 8
  %47 = icmp eq ptr null, %46
  br i1 %47, label %48, label %76

48:                                               ; preds = %41
  %49 = load ptr, ptr %3, align 8
  %50 = load ptr, ptr %49, align 8
  %51 = getelementptr inbounds %struct.H5CX_node_t, ptr %50, i32 0, i32 0
  %52 = getelementptr inbounds %struct.H5CX_t, ptr %51, i32 0, i32 0
  %53 = load i64, ptr %52, align 8
  %54 = call ptr @H5I_object(i64 noundef %53)
  %55 = load ptr, ptr %3, align 8
  %56 = load ptr, ptr %55, align 8
  %57 = getelementptr inbounds %struct.H5CX_node_t, ptr %56, i32 0, i32 0
  %58 = getelementptr inbounds %struct.H5CX_t, ptr %57, i32 0, i32 1
  store ptr %54, ptr %58, align 8
  %59 = icmp eq ptr null, %54
  br i1 %59, label %60, label %75

60:                                               ; preds = %48
  br label %61

61:                                               ; preds = %60
  br label %62

62:                                               ; preds = %61
  br label %63

63:                                               ; preds = %62
  %64 = load i64, ptr @H5E_CONTEXT_g, align 8
  %65 = load i64, ptr @H5E_BADTYPE_g, align 8
  %66 = call i32 (ptr, ptr, i32, i64, i64, ptr, ...) @H5E_printf_stack(ptr noundef @.str, ptr noundef @__func__.H5CX__pop_common, i32 noundef 3648, i64 noundef %64, i64 noundef %65, ptr noundef @.str.56)
  br label %67

67:                                               ; preds = %63
  store i8 1, ptr %5, align 1
  %68 = load i8, ptr %5, align 1
  %69 = trunc i8 %68 to i1
  %70 = zext i1 %69 to i8
  store i8 %70, ptr %5, align 1
  br label %71

71:                                               ; preds = %67
  br label %72

72:                                               ; preds = %71
  store ptr null, ptr %4, align 8
  br label %183

73:                                               ; No predecessors!
  br label %74

74:                                               ; preds = %73
  br label %75

75:                                               ; preds = %74, %48
  br label %76

76:                                               ; preds = %75, %41
  %77 = load ptr, ptr %3, align 8
  %78 = load ptr, ptr %77, align 8
  %79 = getelementptr inbounds %struct.H5CX_node_t, ptr %78, i32 0, i32 0
  %80 = getelementptr inbounds %struct.H5CX_t, ptr %79, i32 0, i32 1
  %81 = load ptr, ptr %80, align 8
  %82 = load ptr, ptr %3, align 8
  %83 = load ptr, ptr %82, align 8
  %84 = getelementptr inbounds %struct.H5CX_node_t, ptr %83, i32 0, i32 0
  %85 = getelementptr inbounds %struct.H5CX_t, ptr %84, i32 0, i32 40
  %86 = call i32 @H5P_set(ptr noundef %81, ptr noundef @.str.29, ptr noundef %85)
  %87 = icmp slt i32 %86, 0
  br i1 %87, label %88, label %103

88:                                               ; preds = %76
  br label %89

89:                                               ; preds = %88
  br label %90

90:                                               ; preds = %89
  br label %91

91:                                               ; preds = %90
  %92 = load i64, ptr @H5E_CONTEXT_g, align 8
  %93 = load i64, ptr @H5E_CANTSET_g, align 8
  %94 = call i32 (ptr, ptr, i32, i64, i64, ptr, ...) @H5E_printf_stack(ptr noundef @.str, ptr noundef @__func__.H5CX__pop_common, i32 noundef 3648, i64 noundef %92, i64 noundef %93, ptr noundef @.str.83)
  br label %95

95:                                               ; preds = %91
  store i8 1, ptr %5, align 1
  %96 = load i8, ptr %5, align 1
  %97 = trunc i8 %96 to i1
  %98 = zext i1 %97 to i8
  store i8 %98, ptr %5, align 1
  br label %99

99:                                               ; preds = %95
  br label %100

100:                                              ; preds = %99
  store ptr null, ptr %4, align 8
  br label %183

101:                                              ; No predecessors!
  br label %102

102:                                              ; preds = %101
  br label %103

103:                                              ; preds = %102, %76
  br label %104

104:                                              ; preds = %103, %34
  %105 = load ptr, ptr %3, align 8
  %106 = load ptr, ptr %105, align 8
  %107 = getelementptr inbounds %struct.H5CX_node_t, ptr %106, i32 0, i32 0
  %108 = getelementptr inbounds %struct.H5CX_t, ptr %107, i32 0, i32 44
  %109 = load i8, ptr %108, align 8
  %110 = trunc i8 %109 to i1
  br i1 %110, label %111, label %174

111:                                              ; preds = %104
  %112 = load ptr, ptr %3, align 8
  %113 = load ptr, ptr %112, align 8
  %114 = getelementptr inbounds %struct.H5CX_node_t, ptr %113, i32 0, i32 0
  %115 = getelementptr inbounds %struct.H5CX_t, ptr %114, i32 0, i32 1
  %116 = load ptr, ptr %115, align 8
  %117 = icmp eq ptr null, %116
  br i1 %117, label %118, label %146

118:                                              ; preds = %111
  %119 = load ptr, ptr %3, align 8
  %120 = load ptr, ptr %119, align 8
  %121 = getelementptr inbounds %struct.H5CX_node_t, ptr %120, i32 0, i32 0
  %122 = getelementptr inbounds %struct.H5CX_t, ptr %121, i32 0, i32 0
  %123 = load i64, ptr %122, align 8
  %124 = call ptr @H5I_object(i64 noundef %123)
  %125 = load ptr, ptr %3, align 8
  %126 = load ptr, ptr %125, align 8
  %127 = getelementptr inbounds %struct.H5CX_node_t, ptr %126, i32 0, i32 0
  %128 = getelementptr inbounds %struct.H5CX_t, ptr %127, i32 0, i32 1
  store ptr %124, ptr %128, align 8
  %129 = icmp eq ptr null, %124
  br i1 %129, label %130, label %145

130:                                              ; preds = %118
  br label %131

131:                                              ; preds = %130
  br label %132

132:                                              ; preds = %131
  br label %133

133:                                              ; preds = %132
  %134 = load i64, ptr @H5E_CONTEXT_g, align 8
  %135 = load i64, ptr @H5E_BADTYPE_g, align 8
  %136 = call i32 (ptr, ptr, i32, i64, i64, ptr, ...) @H5E_printf_stack(ptr noundef @.str, ptr noundef @__func__.H5CX__pop_common, i32 noundef 3649, i64 noundef %134, i64 noundef %135, ptr noundef @.str.56)
  br label %137

137:                                              ; preds = %133
  store i8 1, ptr %5, align 1
  %138 = load i8, ptr %5, align 1
  %139 = trunc i8 %138 to i1
  %140 = zext i1 %139 to i8
  store i8 %140, ptr %5, align 1
  br label %141

141:                                              ; preds = %137
  br label %142

142:                                              ; preds = %141
  store ptr null, ptr %4, align 8
  br label %183

143:                                              ; No predecessors!
  br label %144

144:                                              ; preds = %143
  br label %145

145:                                              ; preds = %144, %118
  br label %146

146:                                              ; preds = %145, %111
  %147 = load ptr, ptr %3, align 8
  %148 = load ptr, ptr %147, align 8
  %149 = getelementptr inbounds %struct.H5CX_node_t, ptr %148, i32 0, i32 0
  %150 = getelementptr inbounds %struct.H5CX_t, ptr %149, i32 0, i32 1
  %151 = load ptr, ptr %150, align 8
  %152 = load ptr, ptr %3, align 8
  %153 = load ptr, ptr %152, align 8
  %154 = getelementptr inbounds %struct.H5CX_node_t, ptr %153, i32 0, i32 0
  %155 = getelementptr inbounds %struct.H5CX_t, ptr %154, i32 0, i32 43
  %156 = call i32 @H5P_set(ptr noundef %151, ptr noundef @.str.31, ptr noundef %155)
  %157 = icmp slt i32 %156, 0
  br i1 %157, label %158, label %173

158:                                              ; preds = %146
  br label %159

159:                                              ; preds = %158
  br label %160

160:                                              ; preds = %159
  br label %161

161:                                              ; preds = %160
  %162 = load i64, ptr @H5E_CONTEXT_g, align 8
  %163 = load i64, ptr @H5E_CANTSET_g, align 8
  %164 = call i32 (ptr, ptr, i32, i64, i64, ptr, ...) @H5E_printf_stack(ptr noundef @.str, ptr noundef @__func__.H5CX__pop_common, i32 noundef 3649, i64 noundef %162, i64 noundef %163, ptr noundef @.str.83)
  br label %165

165:                                              ; preds = %161
  store i8 1, ptr %5, align 1
  %166 = load i8, ptr %5, align 1
  %167 = trunc i8 %166 to i1
  %168 = zext i1 %167 to i8
  store i8 %168, ptr %5, align 1
  br label %169

169:                                              ; preds = %165
  br label %170

170:                                              ; preds = %169
  store ptr null, ptr %4, align 8
  br label %183

171:                                              ; No predecessors!
  br label %172

172:                                              ; preds = %171
  br label %173

173:                                              ; preds = %172, %146
  br label %174

174:                                              ; preds = %173, %104
  br label %175

175:                                              ; preds = %174, %1
  %176 = load ptr, ptr %3, align 8
  %177 = load ptr, ptr %176, align 8
  store ptr %177, ptr %4, align 8
  %178 = load ptr, ptr %3, align 8
  %179 = load ptr, ptr %178, align 8
  %180 = getelementptr inbounds %struct.H5CX_node_t, ptr %179, i32 0, i32 1
  %181 = load ptr, ptr %180, align 8
  %182 = load ptr, ptr %3, align 8
  store ptr %181, ptr %182, align 8
  br label %183

183:                                              ; preds = %175, %170, %142, %100, %72
  %184 = load ptr, ptr %4, align 8
  ret ptr %184
}

; Function Attrs: nounwind uwtable
define i32 @H5CX_pop(i1 noundef zeroext %0) #0 {
  %2 = alloca i8, align 1
  %3 = alloca ptr, align 8
  %4 = alloca i32, align 4
  %5 = alloca i8, align 1
  %6 = zext i1 %0 to i8
  store i8 %6, ptr %2, align 1
  store i32 0, ptr %4, align 4
  store i8 0, ptr %5, align 1
  %7 = load i8, ptr %2, align 1
  %8 = trunc i8 %7 to i1
  %9 = call ptr @H5CX__pop_common(i1 noundef zeroext %8)
  store ptr %9, ptr %3, align 8
  %10 = icmp eq ptr null, %9
  br i1 %10, label %11, label %26

11:                                               ; preds = %1
  br label %12

12:                                               ; preds = %11
  br label %13

13:                                               ; preds = %12
  br label %14

14:                                               ; preds = %13
  %15 = load i64, ptr @H5E_CONTEXT_g, align 8
  %16 = load i64, ptr @H5E_CANTGET_g, align 8
  %17 = call i32 (ptr, ptr, i32, i64, i64, ptr, ...) @H5E_printf_stack(ptr noundef @.str, ptr noundef @__func__.H5CX_pop, i32 noundef 3694, i64 noundef %15, i64 noundef %16, ptr noundef @.str.80)
  br label %18

18:                                               ; preds = %14
  store i8 1, ptr %5, align 1
  %19 = load i8, ptr %5, align 1
  %20 = trunc i8 %19 to i1
  %21 = zext i1 %20 to i8
  store i8 %21, ptr %5, align 1
  br label %22

22:                                               ; preds = %18
  br label %23

23:                                               ; preds = %22
  store i32 -1, ptr %4, align 4
  br label %29

24:                                               ; No predecessors!
  br label %25

25:                                               ; preds = %24
  br label %26

26:                                               ; preds = %25, %1
  %27 = load ptr, ptr %3, align 8
  %28 = call ptr @H5FL_reg_free(ptr noundef @H5_H5CX_node_t_reg_free_list, ptr noundef %27)
  store ptr %28, ptr %3, align 8
  br label %29

29:                                               ; preds = %26, %23
  %30 = load i32, ptr %4, align 4
  ret i32 %30
}