; Function Attrs: nounwind uwtable
define range(i32 -1, 1) i32 @H5CX_pop(i1 noundef zeroext %0) local_unnamed_addr #0 {
  %.pre26.i = load ptr, ptr @H5CX_head_g, align 8
  br i1 %0, label %2, label %H5CX__pop_common.exit.thread5

2:                                                ; preds = %1
  %3 = load i64, ptr %.pre26.i, align 8
  %4 = load i64, ptr @H5P_LST_DATASET_XFER_ID_g, align 8
  %.not.i = icmp eq i64 %3, %4
  br i1 %.not.i, label %12, label %5

5:                                                ; preds = %2
  %6 = getelementptr inbounds i8, ptr %.pre26.i, i64 344
  %7 = load i8, ptr %6, align 8
  %8 = trunc i8 %7 to i1
  br i1 %8, label %12, label %9

9:                                                ; preds = %5
  %10 = load i32, ptr getelementptr inbounds (i8, ptr @H5CX_def_dxpl_cache, i64 152), align 8
  %11 = getelementptr inbounds i8, ptr %.pre26.i, i64 340
  store i32 %10, ptr %11, align 4
  store i8 1, ptr %6, align 8
  br label %12

12:                                               ; preds = %9, %5, %2
  %13 = getelementptr inbounds i8, ptr %.pre26.i, i64 336
  %14 = load i8, ptr %13, align 8
  %15 = trunc i8 %14 to i1
  br i1 %15, label %16, label %39

16:                                               ; preds = %12
  %17 = getelementptr inbounds i8, ptr %.pre26.i, i64 8
  %18 = load ptr, ptr %17, align 8
  %19 = icmp eq ptr %18, null
  br i1 %19, label %20, label %29

20:                                               ; preds = %16
  %21 = tail call ptr @H5I_object(i64 noundef %3) #13
  %22 = load ptr, ptr @H5CX_head_g, align 8
  %23 = getelementptr inbounds i8, ptr %22, i64 8
  store ptr %21, ptr %23, align 8
  %24 = icmp eq ptr %21, null
  br i1 %24, label %25, label %29

25:                                               ; preds = %20
  %26 = load i64, ptr @H5E_CONTEXT_g, align 8
  %27 = load i64, ptr @H5E_BADTYPE_g, align 8
  %28 = tail call i32 (ptr, ptr, i32, i64, i64, ptr, ...) @H5E_printf_stack(ptr noundef nonnull @.str, ptr noundef nonnull @__func__.H5CX__pop_common, i32 noundef 3648, i64 noundef %26, i64 noundef %27, ptr noundef nonnull @.str.56) #13
  br label %H5CX__pop_common.exit.thread

29:                                               ; preds = %20, %16
  %30 = phi ptr [ %21, %20 ], [ %18, %16 ]
  %31 = phi ptr [ %22, %20 ], [ %.pre26.i, %16 ]
  %32 = getelementptr inbounds i8, ptr %31, i64 332
  %33 = tail call i32 @H5P_set(ptr noundef nonnull %30, ptr noundef nonnull @.str.29, ptr noundef nonnull %32) #13
  %34 = icmp slt i32 %33, 0
  br i1 %34, label %35, label %._crit_edge.i

._crit_edge.i:                                    ; preds = %29
  %.pre.i = load ptr, ptr @H5CX_head_g, align 8
  br label %39

35:                                               ; preds = %29
  %36 = load i64, ptr @H5E_CONTEXT_g, align 8
  %37 = load i64, ptr @H5E_CANTSET_g, align 8
  %38 = tail call i32 (ptr, ptr, i32, i64, i64, ptr, ...) @H5E_printf_stack(ptr noundef nonnull @.str, ptr noundef nonnull @__func__.H5CX__pop_common, i32 noundef 3648, i64 noundef %36, i64 noundef %37, ptr noundef nonnull @.str.83) #13
  br label %H5CX__pop_common.exit.thread

39:                                               ; preds = %._crit_edge.i, %12
  %40 = phi ptr [ %.pre.i, %._crit_edge.i ], [ %.pre26.i, %12 ]
  %41 = getelementptr inbounds i8, ptr %40, i64 344
  %42 = load i8, ptr %41, align 8
  %43 = trunc i8 %42 to i1
  br i1 %43, label %44, label %H5CX__pop_common.exit.thread5

44:                                               ; preds = %39
  %45 = getelementptr inbounds i8, ptr %40, i64 8
  %46 = load ptr, ptr %45, align 8
  %47 = icmp eq ptr %46, null
  br i1 %47, label %48, label %58

48:                                               ; preds = %44
  %49 = load i64, ptr %40, align 8
  %50 = tail call ptr @H5I_object(i64 noundef %49) #13
  %51 = load ptr, ptr @H5CX_head_g, align 8
  %52 = getelementptr inbounds i8, ptr %51, i64 8
  store ptr %50, ptr %52, align 8
  %53 = icmp eq ptr %50, null
  br i1 %53, label %54, label %58

54:                                               ; preds = %48
  %55 = load i64, ptr @H5E_CONTEXT_g, align 8
  %56 = load i64, ptr @H5E_BADTYPE_g, align 8
  %57 = tail call i32 (ptr, ptr, i32, i64, i64, ptr, ...) @H5E_printf_stack(ptr noundef nonnull @.str, ptr noundef nonnull @__func__.H5CX__pop_common, i32 noundef 3649, i64 noundef %55, i64 noundef %56, ptr noundef nonnull @.str.56) #13
  br label %H5CX__pop_common.exit.thread

58:                                               ; preds = %48, %44
  %59 = phi ptr [ %50, %48 ], [ %46, %44 ]
  %60 = phi ptr [ %51, %48 ], [ %40, %44 ]
  %61 = getelementptr inbounds i8, ptr %60, i64 340
  %62 = tail call i32 @H5P_set(ptr noundef nonnull %59, ptr noundef nonnull @.str.31, ptr noundef nonnull %61) #13
  %63 = icmp slt i32 %62, 0
  br i1 %63, label %64, label %._crit_edge24.i

._crit_edge24.i:                                  ; preds = %58
  %.pre25.i = load ptr, ptr @H5CX_head_g, align 8
  br label %H5CX__pop_common.exit.thread5

64:                                               ; preds = %58
  %65 = load i64, ptr @H5E_CONTEXT_g, align 8
  %66 = load i64, ptr @H5E_CANTSET_g, align 8
  %67 = tail call i32 (ptr, ptr, i32, i64, i64, ptr, ...) @H5E_printf_stack(ptr noundef nonnull @.str, ptr noundef nonnull @__func__.H5CX__pop_common, i32 noundef 3649, i64 noundef %65, i64 noundef %66, ptr noundef nonnull @.str.83) #13
  br label %H5CX__pop_common.exit.thread

H5CX__pop_common.exit.thread:                     ; preds = %64, %54, %35, %25
  %68 = load i64, ptr @H5E_CONTEXT_g, align 8
  %69 = load i64, ptr @H5E_CANTGET_g, align 8
  %70 = tail call i32 (ptr, ptr, i32, i64, i64, ptr, ...) @H5E_printf_stack(ptr noundef nonnull @.str, ptr noundef nonnull @__func__.H5CX_pop, i32 noundef 3694, i64 noundef %68, i64 noundef %69, ptr noundef nonnull @.str.80) #13
  br label %74

H5CX__pop_common.exit.thread5:                    ; preds = %._crit_edge24.i, %1, %39
  %.sink = phi ptr [ %40, %39 ], [ %.pre25.i, %._crit_edge24.i ], [ %.pre26.i, %1 ]
  %71 = getelementptr inbounds i8, ptr %.sink, i64 472
  %72 = load ptr, ptr %71, align 8
  store ptr %72, ptr @H5CX_head_g, align 8
  %73 = tail call ptr @H5FL_reg_free(ptr noundef nonnull @H5_H5CX_node_t_reg_free_list, ptr noundef nonnull %.sink) #13
  br label %74

74:                                               ; preds = %H5CX__pop_common.exit.thread5, %H5CX__pop_common.exit.thread
  %.0 = phi i32 [ -1, %H5CX__pop_common.exit.thread ], [ 0, %H5CX__pop_common.exit.thread5 ]
  ret i32 %.0
}